target datalayout = "e-m:e-p270:32:32-p271:32:32-p272:64:64-i64:64-i128:128-f80:128-n8:16:32:64-S128"
target triple = "x86_64-pc-linux-gnu"

@_ZN4absl13hash_internal12_GLOBAL__N_14dataE = internal global [1048576 x i8] zeroinitializer, align 16

; Function Attrs: mustprogress nounwind uwtable
define internal void @_ZN4absl13hash_internal12_GLOBAL__N_15setupEv() #5 {
  %1 = alloca i64, align 8
  %2 = alloca i64, align 8
  %3 = alloca i32, align 4
  %4 = alloca i8, align 1
  call void @llvm.lifetime.start.p0(i64 8, ptr %1) #3
  store i64 9, ptr %1, align 8, !tbaa !34
  call void @llvm.lifetime.start.p0(i64 8, ptr %2) #3
  store i64 777, ptr %2, align 8, !tbaa !34
  call void @llvm.lifetime.start.p0(i64 4, ptr %3) #3
  store i32 0, ptr %3, align 4, !tbaa !17
  br label %5

5:                                                ; preds = %35, %0
  %6 = load i32, ptr %3, align 4, !tbaa !17
  %7 = icmp slt i32 %6, 1048576
  br i1 %7, label %9, label %8

8:                                                ; preds = %5
  call void @llvm.lifetime.end.p0(i64 4, ptr %3) #3
  br label %38

9:                                                ; preds = %5
  %10 = load i64, ptr %2, align 8, !tbaa !34
  %11 = load i64, ptr %1, align 8, !tbaa !34
  %12 = add i64 %11, %10
  store i64 %12, ptr %1, align 8, !tbaa !34
  %13 = load i64, ptr %1, align 8, !tbaa !34
  %14 = load i64, ptr %2, align 8, !tbaa !34
  %15 = add i64 %14, %13
  store i64 %15, ptr %2, align 8, !tbaa !34
  %16 = load i64, ptr %1, align 8, !tbaa !34
  %17 = load i64, ptr %1, align 8, !tbaa !34
  %18 = lshr i64 %17, 41
  %19 = xor i64 %16, %18
  %20 = mul i64 %19, -4348849565147123417
  store i64 %20, ptr %1, align 8, !tbaa !34
  %21 = load i64, ptr %2, align 8, !tbaa !34
  %22 = load i64, ptr %2, align 8, !tbaa !34
  %23 = lshr i64 %22, 41
  %24 = xor i64 %21, %23
  %25 = mul i64 %24, -4348849565147123417
  %26 = load i32, ptr %3, align 4, !tbaa !17
  %27 = sext i32 %26 to i64
  %28 = add i64 %25, %27
  store i64 %28, ptr %2, align 8, !tbaa !34
  call void @llvm.lifetime.start.p0(i64 1, ptr %4) #3
  %29 = load i64, ptr %2, align 8, !tbaa !34
  %30 = lshr i64 %29, 37
  %31 = trunc i64 %30 to i8
  store i8 %31, ptr %4, align 1, !tbaa !29
  %32 = load i32, ptr %3, align 4, !tbaa !17
  %33 = sext i32 %32 to i64
  %34 = getelementptr inbounds i8, ptr @_ZN4absl13hash_internal12_GLOBAL__N_14dataE, i64 %33
  call void @llvm.memcpy.p0.p0.i64(ptr align 1 %34, ptr align 1 %4, i64 1, i1 false)
  call void @llvm.lifetime.end.p0(i64 1, ptr %4) #3
  br label %35

35:                                               ; preds = %9
  %36 = load i32, ptr %3, align 4, !tbaa !17
  %37 = add nsw i32 %36, 1
  store i32 %37, ptr %3, align 4, !tbaa !17
  br label %5, !llvm.loop !46

38:                                               ; preds = %8
  call void @llvm.lifetime.end.p0(i64 8, ptr %2) #3
  call void @llvm.lifetime.end.p0(i64 8, ptr %1) #3
  ret void
}

; Function Attrs: mustprogress uwtable
define internal void @_ZN4absl13hash_internal12_GLOBAL__N_128CityHashTest_Unchanging_Test8TestBodyEv(ptr noundef nonnull align 8 dereferenceable(16) %0) unnamed_addr #6 align 2 {
  %2 = alloca ptr, align 8
  %3 = alloca i32, align 4
  store ptr %0, ptr %2, align 8, !tbaa !40
  call void @_ZN4absl13hash_internal12_GLOBAL__N_15setupEv()
  call void @llvm.lifetime.start.p0(i64 4, ptr %3) #3
  store i32 0, ptr %3, align 4, !tbaa !17
  br label %4

4:                                                ; preds = %16, %1
  %5 = load i32, ptr %3, align 4, !tbaa !17
  %6 = icmp slt i32 %5, 299
  br i1 %6, label %7, label %19

7:                                                ; preds = %4
  %8 = load i32, ptr %3, align 4, !tbaa !17
  %9 = sext i32 %8 to i64
  %10 = getelementptr inbounds [300 x [4 x i64]], ptr @_ZN4absl13hash_internal12_GLOBAL__N_18testdataE, i64 0, i64 %9
  %11 = getelementptr inbounds [4 x i64], ptr %10, i64 0, i64 0
  %12 = load i32, ptr %3, align 4, !tbaa !17
  %13 = load i32, ptr %3, align 4, !tbaa !17
  %14 = mul nsw i32 %12, %13
  %15 = load i32, ptr %3, align 4, !tbaa !17
  call void @_ZN4absl13hash_internal12_GLOBAL__N_114TestUnchangingEPKmii(ptr noundef %11, i32 noundef %14, i32 noundef %15)
  br label %16

16:                                               ; preds = %7
  %17 = load i32, ptr %3, align 4, !tbaa !17
  %18 = add nsw i32 %17, 1
  store i32 %18, ptr %3, align 4, !tbaa !17
  br label %4, !llvm.loop !42

19:                                               ; preds = %4
  %20 = load i32, ptr %3, align 4, !tbaa !17
  %21 = sext i32 %20 to i64
  %22 = getelementptr inbounds [300 x [4 x i64]], ptr @_ZN4absl13hash_internal12_GLOBAL__N_18testdataE, i64 0, i64 %21
  %23 = getelementptr inbounds [4 x i64], ptr %22, i64 0, i64 0
  call void @_ZN4absl13hash_internal12_GLOBAL__N_114TestUnchangingEPKmii(ptr noundef %23, i32 noundef 0, i32 noundef 1048576)
  call void @llvm.lifetime.end.p0(i64 4, ptr %3) #3
  ret void
}