; Function Attrs: mustprogress uwtable
define internal void @_ZN4absl13hash_internal12_GLOBAL__N_128CityHashTest_Unchanging_Test8TestBodyEv(ptr nonnull readnone align 8 captures(none) %0) unnamed_addr #4 align 2 {
  br label %2

2:                                                ; preds = %2, %1
  %indvars.iv.i = phi i64 [ 0, %1 ], [ %indvars.iv.next.i, %2 ]
  %.017.i = phi i64 [ 9, %1 ], [ %7, %2 ]
  %.01415.i = phi i64 [ 777, %1 ], [ %11, %2 ]
  %3 = add i64 %.01415.i, %.017.i
  %4 = add i64 %3, %.01415.i
  %5 = lshr i64 %3, 41
  %6 = xor i64 %5, %3
  %7 = mul i64 %6, -4348849565147123417
  %8 = lshr i64 %4, 41
  %9 = xor i64 %8, %4
  %10 = mul i64 %9, -4348849565147123417
  %11 = add i64 %10, %indvars.iv.i
  %12 = lshr i64 %11, 37
  %13 = trunc i64 %12 to i8
  %14 = getelementptr inbounds nuw i8, ptr @_ZN4absl13hash_internal12_GLOBAL__N_14dataE, i64 %indvars.iv.i
  store i8 %13, ptr %14, align 1
  %indvars.iv.next.i = add nuw nsw i64 %indvars.iv.i, 1
  %exitcond.not.i = icmp eq i64 %indvars.iv.next.i, 1048576
  br i1 %exitcond.not.i, label %_ZN4absl13hash_internal12_GLOBAL__N_15setupEv.exit, label %2, !llvm.loop !20

_ZN4absl13hash_internal12_GLOBAL__N_15setupEv.exit: ; preds = %2, %_ZN4absl13hash_internal12_GLOBAL__N_15setupEv.exit
  %indvars.iv = phi i64 [ %indvars.iv.next, %_ZN4absl13hash_internal12_GLOBAL__N_15setupEv.exit ], [ 0, %2 ]
  %indvars8 = trunc i64 %indvars.iv to i32
  %15 = getelementptr inbounds nuw [300 x [4 x i64]], ptr @_ZN4absl13hash_internal12_GLOBAL__N_18testdataE, i64 0, i64 %indvars.iv
  %16 = mul nuw nsw i32 %indvars8, %indvars8
  tail call fastcc void @_ZN4absl13hash_internal12_GLOBAL__N_114TestUnchangingEPKmii(ptr noundef nonnull %15, i32 noundef %16, i32 noundef %indvars8)
  %indvars.iv.next = add nuw nsw i64 %indvars.iv, 1
  %exitcond.not = icmp eq i64 %indvars.iv.next, 299
  br i1 %exitcond.not, label %17, label %_ZN4absl13hash_internal12_GLOBAL__N_15setupEv.exit, !llvm.loop !22

17:                                               ; preds = %_ZN4absl13hash_internal12_GLOBAL__N_15setupEv.exit
  tail call fastcc void @_ZN4absl13hash_internal12_GLOBAL__N_114TestUnchangingEPKmii(ptr noundef nonnull getelementptr inbounds nuw (i8, ptr @_ZN4absl13hash_internal12_GLOBAL__N_18testdataE, i64 9568), i32 noundef 0, i32 noundef 1048576)
  ret void
}